#include <math.h>
#include <stdio.h>
#include <stdlib.h>
#include <string.h>

void main()
{
	int n,a[1000],i,j,k,jud=0;
	scanf("%d%d",&n,&k);
	for(i=0;i<n;i++)scanf("%d",&a[i]);
	for(i=0;i<n;i++){
		for(j=i;j<n;j++)if(a[i]+a[j]==k){jud=1;break;}
		if(jud)break;
	}
	if(jud)printf("yes");
	else printf("no");
}